target datalayout = "e-m:e-p270:32:32-p271:32:32-p272:64:64-i64:64-i128:128-f80:128-n8:16:32:64-S128"
target triple = "x86_64-pc-linux-gnu"

%struct.rb_red_blk_tree = type { ptr, ptr, ptr, ptr }
%struct.rb_red_blk_node = type { ptr, i32, ptr, ptr, ptr }

; Function Attrs: nounwind uwtable
define ptr @RBTreeCreate(ptr noundef %0, ptr noundef %1) #0 {
  %3 = alloca ptr, align 8
  %4 = alloca ptr, align 8
  %5 = alloca ptr, align 8
  %6 = alloca ptr, align 8
  %7 = alloca ptr, align 8
  %8 = alloca i32, align 4
  store ptr %0, ptr %4, align 8, !tbaa !3
  store ptr %1, ptr %5, align 8, !tbaa !3
  call void @llvm.lifetime.start.p0(i64 8, ptr %6) #4
  store ptr null, ptr %6, align 8, !tbaa !7
  call void @llvm.lifetime.start.p0(i64 8, ptr %7) #4
  %9 = call noalias ptr @malloc(i64 noundef 32) #5
  store ptr %9, ptr %6, align 8, !tbaa !7
  %10 = load ptr, ptr %6, align 8, !tbaa !7
  %11 = icmp eq ptr %10, null
  br i1 %11, label %12, label %13

12:                                               ; preds = %2
  store ptr null, ptr %3, align 8
  store i32 1, ptr %8, align 4
  br label %68

13:                                               ; preds = %2
  %14 = load ptr, ptr %6, align 8, !tbaa !7
  %15 = getelementptr inbounds nuw %struct.rb_red_blk_tree, ptr %14, i32 0, i32 2
  store ptr null, ptr %15, align 8, !tbaa !9
  %16 = load ptr, ptr %6, align 8, !tbaa !7
  %17 = getelementptr inbounds nuw %struct.rb_red_blk_tree, ptr %16, i32 0, i32 3
  store ptr null, ptr %17, align 8, !tbaa !12
  %18 = load ptr, ptr %4, align 8, !tbaa !3
  %19 = load ptr, ptr %6, align 8, !tbaa !7
  %20 = getelementptr inbounds nuw %struct.rb_red_blk_tree, ptr %19, i32 0, i32 0
  store ptr %18, ptr %20, align 8, !tbaa !13
  %21 = load ptr, ptr %5, align 8, !tbaa !3
  %22 = load ptr, ptr %6, align 8, !tbaa !7
  %23 = getelementptr inbounds nuw %struct.rb_red_blk_tree, ptr %22, i32 0, i32 1
  store ptr %21, ptr %23, align 8, !tbaa !14
  %24 = call noalias ptr @malloc(i64 noundef 40) #5
  %25 = load ptr, ptr %6, align 8, !tbaa !7
  %26 = getelementptr inbounds nuw %struct.rb_red_blk_tree, ptr %25, i32 0, i32 3
  store ptr %24, ptr %26, align 8, !tbaa !12
  store ptr %24, ptr %7, align 8, !tbaa !15
  %27 = load ptr, ptr %7, align 8, !tbaa !15
  %28 = icmp eq ptr %27, null
  br i1 %28, label %29, label %31

29:                                               ; preds = %13
  %30 = load ptr, ptr %6, align 8, !tbaa !7
  call void @free(ptr noundef %30) #4
  store ptr null, ptr %3, align 8
  store i32 1, ptr %8, align 4
  br label %68

31:                                               ; preds = %13
  %32 = load ptr, ptr %7, align 8, !tbaa !15
  %33 = load ptr, ptr %7, align 8, !tbaa !15
  %34 = getelementptr inbounds nuw %struct.rb_red_blk_node, ptr %33, i32 0, i32 3
  store ptr %32, ptr %34, align 8, !tbaa !16
  %35 = load ptr, ptr %7, align 8, !tbaa !15
  %36 = getelementptr inbounds nuw %struct.rb_red_blk_node, ptr %35, i32 0, i32 2
  store ptr %32, ptr %36, align 8, !tbaa !19
  %37 = load ptr, ptr %7, align 8, !tbaa !15
  %38 = getelementptr inbounds nuw %struct.rb_red_blk_node, ptr %37, i32 0, i32 4
  store ptr %32, ptr %38, align 8, !tbaa !20
  %39 = load ptr, ptr %7, align 8, !tbaa !15
  %40 = getelementptr inbounds nuw %struct.rb_red_blk_node, ptr %39, i32 0, i32 1
  store i32 0, ptr %40, align 8, !tbaa !21
  %41 = load ptr, ptr %7, align 8, !tbaa !15
  %42 = getelementptr inbounds nuw %struct.rb_red_blk_node, ptr %41, i32 0, i32 0
  store ptr null, ptr %42, align 8, !tbaa !22
  %43 = call noalias ptr @malloc(i64 noundef 40) #5
  %44 = load ptr, ptr %6, align 8, !tbaa !7
  %45 = getelementptr inbounds nuw %struct.rb_red_blk_tree, ptr %44, i32 0, i32 2
  store ptr %43, ptr %45, align 8, !tbaa !9
  store ptr %43, ptr %7, align 8, !tbaa !15
  %46 = load ptr, ptr %7, align 8, !tbaa !15
  %47 = icmp eq ptr %46, null
  br i1 %47, label %48, label %53

48:                                               ; preds = %31
  %49 = load ptr, ptr %6, align 8, !tbaa !7
  %50 = getelementptr inbounds nuw %struct.rb_red_blk_tree, ptr %49, i32 0, i32 3
  %51 = load ptr, ptr %50, align 8, !tbaa !12
  call void @free(ptr noundef %51) #4
  %52 = load ptr, ptr %6, align 8, !tbaa !7
  call void @free(ptr noundef %52) #4
  store ptr null, ptr %3, align 8
  store i32 1, ptr %8, align 4
  br label %68

53:                                               ; preds = %31
  %54 = load ptr, ptr %6, align 8, !tbaa !7
  %55 = getelementptr inbounds nuw %struct.rb_red_blk_tree, ptr %54, i32 0, i32 3
  %56 = load ptr, ptr %55, align 8, !tbaa !12
  %57 = load ptr, ptr %7, align 8, !tbaa !15
  %58 = getelementptr inbounds nuw %struct.rb_red_blk_node, ptr %57, i32 0, i32 3
  store ptr %56, ptr %58, align 8, !tbaa !16
  %59 = load ptr, ptr %7, align 8, !tbaa !15
  %60 = getelementptr inbounds nuw %struct.rb_red_blk_node, ptr %59, i32 0, i32 2
  store ptr %56, ptr %60, align 8, !tbaa !19
  %61 = load ptr, ptr %7, align 8, !tbaa !15
  %62 = getelementptr inbounds nuw %struct.rb_red_blk_node, ptr %61, i32 0, i32 4
  store ptr %56, ptr %62, align 8, !tbaa !20
  %63 = load ptr, ptr %7, align 8, !tbaa !15
  %64 = getelementptr inbounds nuw %struct.rb_red_blk_node, ptr %63, i32 0, i32 0
  store ptr null, ptr %64, align 8, !tbaa !22
  %65 = load ptr, ptr %7, align 8, !tbaa !15
  %66 = getelementptr inbounds nuw %struct.rb_red_blk_node, ptr %65, i32 0, i32 1
  store i32 0, ptr %66, align 8, !tbaa !21
  %67 = load ptr, ptr %6, align 8, !tbaa !7
  store ptr %67, ptr %3, align 8
  store i32 1, ptr %8, align 4
  br label %68

68:                                               ; preds = %53, %48, %29, %12
  call void @llvm.lifetime.end.p0(i64 8, ptr %7) #4
  call void @llvm.lifetime.end.p0(i64 8, ptr %6) #4
  %69 = load ptr, ptr %3, align 8
  ret ptr %69
}