; Function Attrs: mustprogress nounwind willreturn memory(readwrite, argmem: none) uwtable
define noalias noundef ptr @RBTreeCreate(ptr noundef %0, ptr noundef %1) local_unnamed_addr #0 {
  %3 = tail call noalias dereferenceable_or_null(32) ptr @malloc(i64 noundef 32) #6
  %4 = icmp eq ptr %3, null
  br i1 %4, label %25, label %5

5:                                                ; preds = %2
  %6 = getelementptr inbounds nuw i8, ptr %3, i64 16
  %7 = getelementptr inbounds nuw i8, ptr %3, i64 24
  store i64 0, ptr %6, align 8
  store ptr %0, ptr %3, align 8, !tbaa !3
  %8 = getelementptr inbounds nuw i8, ptr %3, i64 8
  store ptr %1, ptr %8, align 8, !tbaa !9
  %9 = tail call noalias dereferenceable_or_null(40) ptr @malloc(i64 noundef 40) #6
  store ptr %9, ptr %7, align 8, !tbaa !10
  %10 = icmp eq ptr %9, null
  br i1 %10, label %11, label %12

11:                                               ; preds = %5
  tail call void @free(ptr noundef nonnull %3) #7
  br label %25

12:                                               ; preds = %5
  %13 = getelementptr inbounds nuw i8, ptr %9, i64 24
  store ptr %9, ptr %13, align 8, !tbaa !11
  %14 = getelementptr inbounds nuw i8, ptr %9, i64 16
  store ptr %9, ptr %14, align 8, !tbaa !14
  %15 = getelementptr inbounds nuw i8, ptr %9, i64 32
  store ptr %9, ptr %15, align 8, !tbaa !15
  %16 = getelementptr inbounds nuw i8, ptr %9, i64 8
  store i32 0, ptr %16, align 8, !tbaa !16
  store ptr null, ptr %9, align 8, !tbaa !17
  %17 = tail call noalias dereferenceable_or_null(40) ptr @malloc(i64 noundef 40) #6
  store ptr %17, ptr %6, align 8, !tbaa !18
  %18 = icmp eq ptr %17, null
  br i1 %18, label %19, label %20

19:                                               ; preds = %12
  tail call void @free(ptr noundef nonnull %9) #7
  tail call void @free(ptr noundef nonnull %3) #7
  br label %25

20:                                               ; preds = %12
  %21 = getelementptr inbounds nuw i8, ptr %17, i64 24
  store ptr %9, ptr %21, align 8, !tbaa !11
  %22 = getelementptr inbounds nuw i8, ptr %17, i64 16
  store ptr %9, ptr %22, align 8, !tbaa !14
  %23 = getelementptr inbounds nuw i8, ptr %17, i64 32
  store ptr %9, ptr %23, align 8, !tbaa !15
  store ptr null, ptr %17, align 8, !tbaa !17
  %24 = getelementptr inbounds nuw i8, ptr %17, i64 8
  store i32 0, ptr %24, align 8, !tbaa !16
  br label %25

25:                                               ; preds = %2, %20, %19, %11
  %.0 = phi ptr [ null, %11 ], [ null, %19 ], [ %3, %20 ], [ null, %2 ]
  ret ptr %.0
}